; ModuleID = 'bench/openblas/original/lapacke_ztp_trans.ll'
source_filename = "bench/openblas/original/lapacke_ztp_trans.ll"
target datalayout = "e-m:e-p270:32:32-p271:32:32-p272:64:64-i64:64-i128:128-f80:128-n8:16:32:64-S128"
target triple = "x86_64-pc-linux-gnu"

; Function Attrs: nofree nosync nounwind memory(argmem: readwrite) uwtable
define void @LAPACKE_ztp_trans(i32 noundef %0, i8 noundef signext %1, i8 noundef signext %2, i32 noundef %3, ptr noundef readonly captures(address_is_null) %4, ptr noundef writeonly captures(address_is_null) %5) local_unnamed_addr #0 {
  %7 = icmp eq ptr %4, null
  %8 = icmp eq ptr %5, null
  %or.cond = or i1 %7, %8
  br i1 %or.cond, label %.loopexit, label %9

9:                                                ; preds = %6
  %10 = icmp eq i32 %0, 102
  %11 = tail call i32 @LAPACKE_lsame(i8 noundef signext %2, i8 noundef signext 117) #2
  %12 = icmp ne i32 %0, 101
  %or.cond3 = xor i1 %10, %12
  br i1 %or.cond3, label %.loopexit, label %13

13:                                               ; preds = %9
  %14 = tail call i32 @LAPACKE_lsame(i8 noundef signext %1, i8 noundef signext 117) #2
  %15 = icmp ne i32 %14, 0
  br i1 %15, label %18, label %16

16:                                               ; preds = %13
  %17 = tail call i32 @LAPACKE_lsame(i8 noundef signext %1, i8 noundef signext 108) #2
  %.not = icmp eq i32 %17, 0
  br i1 %.not, label %.loopexit, label %18

18:                                               ; preds = %16, %13
  %.not66 = icmp ne i32 %11, 0
  br i1 %.not66, label %21, label %19

19:                                               ; preds = %18
  %20 = tail call i32 @LAPACKE_lsame(i8 noundef signext %2, i8 noundef signext 110) #2
  %.not67 = icmp eq i32 %20, 0
  br i1 %.not67, label %.loopexit, label %21

21:                                               ; preds = %19, %18
  %. = zext i1 %.not66 to i32
  %22 = xor i1 %10, %15
  br i1 %22, label %.preheader, label %.preheader71

.preheader71:                                     ; preds = %21
  %23 = icmp sgt i32 %3, %.
  br i1 %23, label %.preheader69.lr.ph, label %.loopexit

.preheader69.lr.ph:                               ; preds = %.preheader71
  %24 = shl nuw nsw i32 %3, 1
  %25 = or disjoint i32 %24, 1
  %26 = add nuw i32 %3, 1
  %27 = sub nuw i32 %26, %.
  %wide.trip.count91 = zext i32 %27 to i64
  br label %.lr.ph

.preheader:                                       ; preds = %21
  %28 = sub nsw i32 %3, %.
  %29 = icmp sgt i32 %28, 0
  br i1 %29, label %.lr.ph80, label %.loopexit

.lr.ph80:                                         ; preds = %.preheader
  %30 = shl nsw i32 %3, 1
  %invariant.op81 = or disjoint i32 %30, 1
  %31 = zext i1 %.not66 to i64
  %wide.trip.count = zext i32 %3 to i64
  br label %49

.loopexit70:                                      ; preds = %36
  %indvars.iv.next89 = add nuw nsw i64 %indvars.iv88, 1
  %exitcond92.not = icmp eq i64 %indvars.iv.next89, %wide.trip.count91
  br i1 %exitcond92.not, label %.loopexit, label %.lr.ph, !llvm.loop !3

.lr.ph:                                           ; preds = %.loopexit70, %.preheader69.lr.ph
  %indvars.iv88 = phi i64 [ 1, %.preheader69.lr.ph ], [ %indvars.iv.next89, %.loopexit70 ]
  %.05975 = phi i32 [ %., %.preheader69.lr.ph ], [ %32, %.loopexit70 ]
  %32 = add nuw nsw i32 %.05975, 1
  %33 = mul nuw nsw i32 %32, %.05975
  %34 = lshr i32 %33, 1
  %35 = zext nneg i32 %34 to i64
  %invariant.gep = getelementptr inbounds nuw { double, double }, ptr %4, i64 %35
  br label %36

36:                                               ; preds = %.lr.ph, %36
  %indvars.iv = phi i64 [ 0, %.lr.ph ], [ %indvars.iv.next, %36 ]
  %.0.neg74 = phi i32 [ 0, %.lr.ph ], [ %.0.neg, %36 ]
  %gep = getelementptr inbounds nuw { double, double }, ptr %invariant.gep, i64 %indvars.iv
  %37 = load double, ptr %gep, align 8
  %38 = getelementptr inbounds nuw i8, ptr %gep, i64 8
  %39 = load double, ptr %38, align 8
  %40 = add nsw i32 %.0.neg74, %.05975
  %41 = add i32 %25, %.0.neg74
  %42 = trunc nuw nsw i64 %indvars.iv to i32
  %43 = mul nsw i32 %41, %42
  %44 = sdiv i32 %43, 2
  %45 = add nsw i32 %40, %44
  %46 = sext i32 %45 to i64
  %47 = getelementptr inbounds { double, double }, ptr %5, i64 %46
  %48 = getelementptr inbounds nuw i8, ptr %47, i64 8
  store double %37, ptr %47, align 8
  store double %39, ptr %48, align 8
  %indvars.iv.next = add nuw nsw i64 %indvars.iv, 1
  %.0.neg = xor i32 %42, -1
  %exitcond.not = icmp eq i64 %indvars.iv.next, %indvars.iv88
  br i1 %exitcond.not, label %.loopexit70, label %36, !llvm.loop !5

49:                                               ; preds = %.lr.ph80, %._crit_edge
  %indvars.iv93 = phi i64 [ %31, %.lr.ph80 ], [ %indvars.iv.next94, %._crit_edge ]
  %.160.neg79 = phi i32 [ 0, %.lr.ph80 ], [ %.160.neg, %._crit_edge ]
  %.16078 = phi i32 [ 0, %.lr.ph80 ], [ %70, %._crit_edge ]
  %50 = add nuw nsw i32 %.16078, %.
  %51 = icmp slt i32 %50, %3
  br i1 %51, label %.lr.ph77, label %._crit_edge

.lr.ph77:                                         ; preds = %49
  %.reass.reass = add i32 %.160.neg79, %invariant.op81
  %52 = mul nsw i32 %.reass.reass, %.16078
  %53 = sdiv i32 %52, 2
  %54 = add i32 %53, %.160.neg79
  br label %55

55:                                               ; preds = %.lr.ph77, %55
  %indvars.iv95 = phi i64 [ %indvars.iv93, %.lr.ph77 ], [ %indvars.iv.next96, %55 ]
  %56 = trunc nuw nsw i64 %indvars.iv95 to i32
  %57 = add i32 %54, %56
  %58 = sext i32 %57 to i64
  %59 = getelementptr inbounds { double, double }, ptr %4, i64 %58
  %60 = load double, ptr %59, align 8
  %61 = getelementptr inbounds nuw i8, ptr %59, i64 8
  %62 = load double, ptr %61, align 8
  %indvars.iv.next96 = add nuw nsw i64 %indvars.iv95, 1
  %63 = mul i64 %indvars.iv.next96, %indvars.iv95
  %64 = trunc i64 %63 to i32
  %65 = lshr i32 %64, 1
  %66 = add nuw nsw i32 %65, %.16078
  %67 = zext nneg i32 %66 to i64
  %68 = getelementptr inbounds nuw { double, double }, ptr %5, i64 %67
  %69 = getelementptr inbounds nuw i8, ptr %68, i64 8
  store double %60, ptr %68, align 8
  store double %62, ptr %69, align 8
  %exitcond98.not = icmp eq i64 %indvars.iv.next96, %wide.trip.count
  br i1 %exitcond98.not, label %._crit_edge, label %55, !llvm.loop !6

._crit_edge:                                      ; preds = %55, %49
  %70 = add nuw nsw i32 %.16078, 1
  %.160.neg = xor i32 %.16078, -1
  %indvars.iv.next94 = add nuw nsw i64 %indvars.iv93, 1
  %exitcond99.not = icmp eq i32 %70, %28
  br i1 %exitcond99.not, label %.loopexit, label %49, !llvm.loop !7

.loopexit:                                        ; preds = %.loopexit70, %._crit_edge, %.preheader71, %.preheader, %16, %19, %9, %6
  ret void
}

; Function Attrs: mustprogress nofree nosync nounwind willreturn memory(none)
declare i32 @LAPACKE_lsame(i8 noundef signext, i8 noundef signext) local_unnamed_addr #1


!llvm.module.flags = !{!0, !1, !2}

!0 = !{i32 1, !"wchar_size", i32 4}
!1 = !{i32 8, !"PIC Level", i32 2}
!2 = !{i32 7, !"uwtable", i32 2}
!3 = distinct !{!3, !4}
!4 = !{!"llvm.loop.mustprogress"}
!5 = distinct !{!5, !4}
!6 = distinct !{!6, !4}
!7 = distinct !{!7, !4}
